target datalayout = "e-m:e-p270:32:32-p271:32:32-p272:64:64-i64:64-i128:128-f80:128-n8:16:32:64-S128"
target triple = "x86_64-pc-linux-gnu"

%struct.PJconsts = type { ptr, ptr, ptr, ptr, ptr, ptr, ptr, ptr, ptr, ptr, ptr, ptr, i32, ptr, ptr, ptr, ptr, ptr, ptr, ptr, ptr, double, double, double, double, double, double, double, double, double, double, double, double, double, double, double, double, double, double, double, double, double, double, i32, i32, i32, i32, i32, i32, i32, i32, i32, i32, i32, ptr, ptr, ptr, ptr, ptr, ptr, double, double, double, double, double, double, double, double, double, double, double, i32, [7 x double], i32, ptr, ptr, double, double, i32, [4 x i8], %"class.std::shared_ptr", i8, double, i8, %"class.std::__cxx11::basic_string", %"class.std::__cxx11::basic_string", %"class.std::__cxx11::basic_string", i8, %"class.std::vector", i32, %"class.std::vector.3", i32, i8, i8, i8, ptr }
%"class.std::shared_ptr" = type { %"class.std::__shared_ptr" }
%"class.std::__shared_ptr" = type { ptr, %"class.std::__shared_count" }
%"class.std::__shared_count" = type { ptr }
%"class.std::__cxx11::basic_string" = type { %"struct.std::__cxx11::basic_string<char>::_Alloc_hider", i64, %union.anon }
%"struct.std::__cxx11::basic_string<char>::_Alloc_hider" = type { ptr }
%union.anon = type { i64, [8 x i8] }
%"class.std::vector" = type { %"struct.std::_Vector_base" }
%"struct.std::_Vector_base" = type { %"struct.std::_Vector_base<osgeo::proj::operation::GridDescription, std::allocator<osgeo::proj::operation::GridDescription>>::_Vector_impl" }
%"struct.std::_Vector_base<osgeo::proj::operation::GridDescription, std::allocator<osgeo::proj::operation::GridDescription>>::_Vector_impl" = type { %"struct.std::_Vector_base<osgeo::proj::operation::GridDescription, std::allocator<osgeo::proj::operation::GridDescription>>::_Vector_impl_data" }
%"struct.std::_Vector_base<osgeo::proj::operation::GridDescription, std::allocator<osgeo::proj::operation::GridDescription>>::_Vector_impl_data" = type { ptr, ptr, ptr }
%"class.std::vector.3" = type { %"struct.std::_Vector_base.4" }
%"struct.std::_Vector_base.4" = type { %"struct.std::_Vector_base<PJCoordOperation, std::allocator<PJCoordOperation>>::_Vector_impl" }
%"struct.std::_Vector_base<PJCoordOperation, std::allocator<PJCoordOperation>>::_Vector_impl" = type { %"struct.std::_Vector_base<PJCoordOperation, std::allocator<PJCoordOperation>>::_Vector_impl_data" }
%"struct.std::_Vector_base<PJCoordOperation, std::allocator<PJCoordOperation>>::_Vector_impl_data" = type { ptr, ptr, ptr }
%"struct.(anonymous namespace)::cass_data" = type { ptr, double, i8 }
%struct.PJ_LP = type { double, double }
%struct.PJ_XY = type { double, double }

; Function Attrs: mustprogress uwtable
define internal { double, double } @_ZL14cass_e_inverse5PJ_XYP8PJconsts(double %0, double %1, ptr noundef %2) #0 {
  %4 = alloca %struct.PJ_LP, align 8
  %5 = alloca %struct.PJ_XY, align 8
  %6 = alloca ptr, align 8
  %7 = alloca ptr, align 8
  %8 = alloca double, align 8
  %9 = alloca double, align 8
  %10 = alloca double, align 8
  %11 = alloca double, align 8
  %12 = alloca double, align 8
  %13 = alloca double, align 8
  %14 = alloca double, align 8
  %15 = alloca double, align 8
  %16 = alloca double, align 8
  %17 = alloca double, align 8
  %18 = alloca %struct.PJ_LP, align 8
  %19 = alloca %struct.PJ_XY, align 8
  %20 = alloca %struct.PJ_LP, align 8
  %21 = getelementptr inbounds nuw { double, double }, ptr %5, i32 0, i32 0
  store double %0, ptr %21, align 8
  %22 = getelementptr inbounds nuw { double, double }, ptr %5, i32 0, i32 1
  store double %1, ptr %22, align 8
  store ptr %2, ptr %6, align 8, !tbaa !3
  call void @llvm.memset.p0.i64(ptr align 8 %4, i8 0, i64 16, i1 false)
  call void @llvm.lifetime.start.p0(i64 8, ptr %7) #9
  %23 = load ptr, ptr %6, align 8, !tbaa !3
  %24 = getelementptr inbounds nuw %struct.PJconsts, ptr %23, i32 0, i32 11
  %25 = load ptr, ptr %24, align 8, !tbaa !46
  store ptr %25, ptr %7, align 8, !tbaa !44
  call void @llvm.lifetime.start.p0(i64 8, ptr %8) #9
  %26 = load ptr, ptr %7, align 8, !tbaa !44
  %27 = getelementptr inbounds nuw %"struct.(anonymous namespace)::cass_data", ptr %26, i32 0, i32 1
  %28 = load double, ptr %27, align 8, !tbaa !54
  %29 = getelementptr inbounds nuw %struct.PJ_XY, ptr %5, i32 0, i32 1
  %30 = load double, ptr %29, align 8, !tbaa !57
  %31 = fadd double %28, %30
  %32 = load ptr, ptr %7, align 8, !tbaa !44
  %33 = getelementptr inbounds nuw %"struct.(anonymous namespace)::cass_data", ptr %32, i32 0, i32 0
  %34 = load ptr, ptr %33, align 8, !tbaa !49
  %35 = call noundef double @_Z11pj_inv_mlfndPKd(double noundef %31, ptr noundef %34)
  store double %35, ptr %8, align 8, !tbaa !59
  call void @llvm.lifetime.start.p0(i64 8, ptr %9) #9
  %36 = load double, ptr %8, align 8, !tbaa !59
  %37 = call double @tan(double noundef %36) #9, !tbaa !53
  store double %37, ptr %9, align 8, !tbaa !59
  call void @llvm.lifetime.start.p0(i64 8, ptr %10) #9
  %38 = load double, ptr %9, align 8, !tbaa !59
  %39 = load double, ptr %9, align 8, !tbaa !59
  %40 = fmul double %38, %39
  store double %40, ptr %10, align 8, !tbaa !59
  call void @llvm.lifetime.start.p0(i64 8, ptr %11) #9
  %41 = load double, ptr %8, align 8, !tbaa !59
  %42 = call double @sin(double noundef %41) #9, !tbaa !53
  store double %42, ptr %11, align 8, !tbaa !59
  call void @llvm.lifetime.start.p0(i64 8, ptr %12) #9
  %43 = load ptr, ptr %6, align 8, !tbaa !3
  %44 = getelementptr inbounds nuw %struct.PJconsts, ptr %43, i32 0, i32 27
  %45 = load double, ptr %44, align 8, !tbaa !41
  %46 = load double, ptr %11, align 8, !tbaa !59
  %47 = fmul double %45, %46
  %48 = load double, ptr %11, align 8, !tbaa !59
  %49 = fneg double %47
  %50 = call double @llvm.fmuladd.f64(double %49, double %48, double 1.000000e+00)
  %51 = fdiv double 1.000000e+00, %50
  store double %51, ptr %12, align 8, !tbaa !59
  call void @llvm.lifetime.start.p0(i64 8, ptr %13) #9
  %52 = load double, ptr %12, align 8, !tbaa !59
  %53 = call double @sqrt(double noundef %52) #9, !tbaa !53
  store double %53, ptr %13, align 8, !tbaa !59
  call void @llvm.lifetime.start.p0(i64 8, ptr %14) #9
  %54 = load double, ptr %12, align 8, !tbaa !59
  %55 = load ptr, ptr %6, align 8, !tbaa !3
  %56 = getelementptr inbounds nuw %struct.PJconsts, ptr %55, i32 0, i32 27
  %57 = load double, ptr %56, align 8, !tbaa !41
  %58 = fsub double 1.000000e+00, %57
  %59 = fmul double %54, %58
  %60 = load double, ptr %13, align 8, !tbaa !59
  %61 = fmul double %59, %60
  store double %61, ptr %14, align 8, !tbaa !59
  call void @llvm.lifetime.start.p0(i64 8, ptr %15) #9
  %62 = getelementptr inbounds nuw %struct.PJ_XY, ptr %5, i32 0, i32 0
  %63 = load double, ptr %62, align 8, !tbaa !60
  %64 = load double, ptr %13, align 8, !tbaa !59
  %65 = fdiv double %63, %64
  store double %65, ptr %15, align 8, !tbaa !59
  call void @llvm.lifetime.start.p0(i64 8, ptr %16) #9
  %66 = load double, ptr %15, align 8, !tbaa !59
  %67 = load double, ptr %15, align 8, !tbaa !59
  %68 = fmul double %66, %67
  store double %68, ptr %16, align 8, !tbaa !59
  %69 = load double, ptr %8, align 8, !tbaa !59
  %70 = load double, ptr %13, align 8, !tbaa !59
  %71 = load double, ptr %9, align 8, !tbaa !59
  %72 = fmul double %70, %71
  %73 = load double, ptr %14, align 8, !tbaa !59
  %74 = fdiv double %72, %73
  %75 = load double, ptr %16, align 8, !tbaa !59
  %76 = fmul double %74, %75
  %77 = load double, ptr %10, align 8, !tbaa !59
  %78 = call double @llvm.fmuladd.f64(double 3.000000e+00, double %77, double 1.000000e+00)
  %79 = load double, ptr %16, align 8, !tbaa !59
  %80 = fmul double %78, %79
  %81 = fneg double %80
  %82 = call double @llvm.fmuladd.f64(double %81, double 0x3FA5555555555555, double 5.000000e-01)
  %83 = fneg double %76
  %84 = call double @llvm.fmuladd.f64(double %83, double %82, double %69)
  %85 = getelementptr inbounds nuw %struct.PJ_LP, ptr %4, i32 0, i32 1
  store double %84, ptr %85, align 8, !tbaa !61
  %86 = load double, ptr %15, align 8, !tbaa !59
  %87 = load double, ptr %10, align 8, !tbaa !59
  %88 = load double, ptr %16, align 8, !tbaa !59
  %89 = fmul double %87, %88
  %90 = load double, ptr %10, align 8, !tbaa !59
  %91 = call double @llvm.fmuladd.f64(double 3.000000e+00, double %90, double 1.000000e+00)
  %92 = load double, ptr %16, align 8, !tbaa !59
  %93 = fmul double %91, %92
  %94 = call double @llvm.fmuladd.f64(double %93, double 0x3FB1111111111111, double 0xBFD5555555555555)
  %95 = call double @llvm.fmuladd.f64(double %89, double %94, double 1.000000e+00)
  %96 = fmul double %86, %95
  %97 = load double, ptr %8, align 8, !tbaa !59
  %98 = call double @cos(double noundef %97) #9, !tbaa !53
  %99 = fdiv double %96, %98
  %100 = getelementptr inbounds nuw %struct.PJ_LP, ptr %4, i32 0, i32 0
  store double %99, ptr %100, align 8, !tbaa !63
  call void @llvm.lifetime.start.p0(i64 8, ptr %17) #9
  store double 0x3D719799812DEA11, ptr %17, align 8, !tbaa !59
  call void @llvm.lifetime.start.p0(i64 16, ptr %18) #9
  call void @llvm.memcpy.p0.p0.i64(ptr align 8 %19, ptr align 8 %5, i64 16, i1 false), !tbaa.struct !64
  %101 = load ptr, ptr %6, align 8, !tbaa !3
  call void @llvm.memcpy.p0.p0.i64(ptr align 8 %20, ptr align 8 %4, i64 16, i1 false), !tbaa.struct !64
  %102 = getelementptr inbounds nuw { double, double }, ptr %19, i32 0, i32 0
  %103 = load double, ptr %102, align 8
  %104 = getelementptr inbounds nuw { double, double }, ptr %19, i32 0, i32 1
  %105 = load double, ptr %104, align 8
  %106 = getelementptr inbounds nuw { double, double }, ptr %20, i32 0, i32 0
  %107 = load double, ptr %106, align 8
  %108 = getelementptr inbounds nuw { double, double }, ptr %20, i32 0, i32 1
  %109 = load double, ptr %108, align 8
  %110 = call { double, double } @_Z21pj_generic_inverse_2d5PJ_XYP8PJconsts5PJ_LPd(double %103, double %105, ptr noundef %101, double %107, double %109, double noundef 0x3D719799812DEA11)
  %111 = getelementptr inbounds nuw { double, double }, ptr %18, i32 0, i32 0
  %112 = extractvalue { double, double } %110, 0
  store double %112, ptr %111, align 8
  %113 = getelementptr inbounds nuw { double, double }, ptr %18, i32 0, i32 1
  %114 = extractvalue { double, double } %110, 1
  store double %114, ptr %113, align 8
  call void @llvm.memcpy.p0.p0.i64(ptr align 8 %4, ptr align 8 %18, i64 16, i1 false), !tbaa.struct !64
  call void @llvm.lifetime.end.p0(i64 16, ptr %18) #9
  call void @llvm.lifetime.end.p0(i64 8, ptr %17) #9
  call void @llvm.lifetime.end.p0(i64 8, ptr %16) #9
  call void @llvm.lifetime.end.p0(i64 8, ptr %15) #9
  call void @llvm.lifetime.end.p0(i64 8, ptr %14) #9
  call void @llvm.lifetime.end.p0(i64 8, ptr %13) #9
  call void @llvm.lifetime.end.p0(i64 8, ptr %12) #9
  call void @llvm.lifetime.end.p0(i64 8, ptr %11) #9
  call void @llvm.lifetime.end.p0(i64 8, ptr %10) #9
  call void @llvm.lifetime.end.p0(i64 8, ptr %9) #9
  call void @llvm.lifetime.end.p0(i64 8, ptr %8) #9
  call void @llvm.lifetime.end.p0(i64 8, ptr %7) #9
  %115 = load { double, double }, ptr %4, align 8
  ret { double, double } %115
}