; Function Attrs: mustprogress uwtable
define internal { double, double } @_ZL14cass_e_inverse5PJ_XYP8PJconsts(double %0, double %1, ptr noundef %2) #0 {
  %4 = getelementptr inbounds nuw i8, ptr %2, i64 88
  %5 = load ptr, ptr %4, align 8, !tbaa !43
  %6 = getelementptr inbounds nuw i8, ptr %5, i64 8
  %7 = load double, ptr %6, align 8, !tbaa !51
  %8 = fadd double %1, %7
  %9 = load ptr, ptr %5, align 8, !tbaa !46
  %10 = tail call noundef double @_Z11pj_inv_mlfndPKd(double noundef %8, ptr noundef %9)
  %11 = tail call double @tan(double noundef %10) #8, !tbaa !50
  %12 = fmul double %11, %11
  %13 = tail call double @sin(double noundef %10) #8, !tbaa !50
  %14 = getelementptr inbounds nuw i8, ptr %2, i64 216
  %15 = load double, ptr %14, align 8, !tbaa !40
  %16 = fneg double %13
  %17 = fmul double %15, %16
  %18 = tail call double @llvm.fmuladd.f64(double %17, double %13, double 1.000000e+00)
  %19 = fdiv double 1.000000e+00, %18
  %20 = tail call double @sqrt(double noundef %19) #8, !tbaa !50
  %21 = fsub double 1.000000e+00, %15
  %22 = fmul double %21, %19
  %23 = fmul double %20, %22
  %24 = fdiv double %0, %20
  %25 = fmul double %24, %24
  %26 = fmul double %11, %20
  %27 = fdiv double %26, %23
  %28 = tail call double @llvm.fmuladd.f64(double %12, double 3.000000e+00, double 1.000000e+00)
  %29 = fmul double %28, %25
  %30 = fneg double %29
  %31 = tail call double @llvm.fmuladd.f64(double %30, double 0x3FA5555555555555, double 5.000000e-01)
  %32 = fneg double %25
  %33 = fmul double %27, %32
  %34 = tail call double @llvm.fmuladd.f64(double %33, double %31, double %10)
  %35 = fmul double %12, %25
  %36 = tail call double @llvm.fmuladd.f64(double %29, double 0x3FB1111111111111, double 0xBFD5555555555555)
  %37 = tail call double @llvm.fmuladd.f64(double %35, double %36, double 1.000000e+00)
  %38 = fmul double %24, %37
  %39 = tail call double @cos(double noundef %10) #8, !tbaa !50
  %40 = fdiv double %38, %39
  %41 = tail call { double, double } @_Z21pj_generic_inverse_2d5PJ_XYP8PJconsts5PJ_LPd(double %0, double %1, ptr noundef %2, double %40, double %34, double noundef 0x3D719799812DEA11)
  ret { double, double } %41
}